; Function Attrs: mustprogress uwtable
define noundef zeroext i1 @_ZNK32pxrInternal_v0_24__pxrReserved__7UsdPrim26GetVersionIfHasAPIInFamilyERKNS_7TfTokenES3_Pj(ptr nocapture noundef nonnull readonly align 8 dereferenceable(32) %0, ptr noundef nonnull align 8 dereferenceable(8) %1, ptr noundef nonnull align 8 dereferenceable(8) %2, ptr nocapture noundef writeonly %3) local_unnamed_addr #0 align 2 {
  %5 = tail call fastcc noundef ptr @_ZN32pxrInternal_v0_24__pxrReserved__L41_GetFirstSchemaInFamilyPrimHasAPIInstanceIJNS_7TfTokenEEEEPKNS_17UsdSchemaRegistry10SchemaInfoERKNS_7UsdPrimERKS1_DpRKT_(ptr noundef nonnull align 8 dereferenceable(32) %0, ptr noundef nonnull align 8 dereferenceable(8) %2, ptr noundef nonnull align 8 dereferenceable(8) %1)
  %.not = icmp ne ptr %5, null
  br i1 %.not, label %6, label %9

6:                                                ; preds = %4
  %7 = getelementptr inbounds nuw i8, ptr %5, i64 24
  %8 = load i32, ptr %7, align 8
  store i32 %8, ptr %3, align 4
  br label %9

9:                                                ; preds = %4, %6
  ret i1 %.not
}